; Function Attrs: mustprogress uwtable
define hidden noundef ptr @_ZN9format_ns10mk_composeER11ast_managerP3appS3_(ptr noundef nonnull align 8 dereferenceable(976) %0, ptr noundef %1, ptr noundef %2) local_unnamed_addr #3 {
  %4 = getelementptr inbounds nuw i8, ptr %0, i64 928
  %5 = load ptr, ptr %4, align 8, !tbaa !3
  %6 = icmp eq ptr %5, null
  %7 = select i1 %6, ptr %0, ptr %5
  %8 = tail call noundef i32 @_ZN9format_ns20get_format_family_idER11ast_manager(ptr noundef nonnull align 8 dereferenceable(976) %0)
  %9 = tail call noundef ptr @_ZN11ast_manager6mk_appEiiP4exprS1_(ptr noundef nonnull align 8 dereferenceable(976) %7, i32 noundef %8, i32 noundef 3, ptr noundef %1, ptr noundef %2)
  ret ptr %9
}